; ModuleID = '62/2214.cpp'
source_filename = "62/2214.cpp"
target datalayout = "e-m:e-p270:32:32-p271:32:32-p272:64:64-i64:64-f80:128-n8:16:32:64-S128"
target triple = "x86_64-pc-linux-gnu"

%"class.std::ios_base::Init" = type { i8 }
%"class.std::basic_istream" = type { i32 (...)**, i64, %"class.std::basic_ios" }
%"class.std::basic_ios" = type { %"class.std::ios_base", %"class.std::basic_ostream"*, i8, i8, %"class.std::basic_streambuf"*, %"class.std::ctype"*, %"class.std::num_put"*, %"class.std::num_get"* }
%"class.std::ios_base" = type { i32 (...)**, i64, i64, i32, i32, i32, %"struct.std::ios_base::_Callback_list"*, %"struct.std::ios_base::_Words", [8 x %"struct.std::ios_base::_Words"], i32, %"struct.std::ios_base::_Words"*, %"class.std::locale" }
%"struct.std::ios_base::_Callback_list" = type { %"struct.std::ios_base::_Callback_list"*, void (i32, %"class.std::ios_base"*, i32)*, i32, i32 }
%"struct.std::ios_base::_Words" = type { i8*, i64 }
%"class.std::locale" = type { %"class.std::locale::_Impl"* }
%"class.std::locale::_Impl" = type { i32, %"class.std::locale::facet"**, i64, %"class.std::locale::facet"**, i8** }
%"class.std::locale::facet" = type <{ i32 (...)**, i32, [4 x i8] }>
%"class.std::basic_ostream" = type { i32 (...)**, %"class.std::basic_ios" }
%"class.std::basic_streambuf" = type { i32 (...)**, i8*, i8*, i8*, i8*, i8*, i8*, %"class.std::locale" }
%"class.std::ctype" = type <{ %"class.std::locale::facet.base", [4 x i8], %struct.__locale_struct*, i8, [7 x i8], i32*, i32*, i16*, i8, [256 x i8], [256 x i8], i8, [6 x i8] }>
%"class.std::locale::facet.base" = type <{ i32 (...)**, i32 }>
%struct.__locale_struct = type { [13 x %struct.__locale_data*], i16*, i32*, i32*, [13 x i8*] }
%struct.__locale_data = type opaque
%"class.std::num_put" = type { %"class.std::locale::facet.base", [4 x i8] }
%"class.std::num_get" = type { %"class.std::locale::facet.base", [4 x i8] }

@_ZStL8__ioinit = internal global %"class.std::ios_base::Init" zeroinitializer, align 1
@__dso_handle = external hidden global i8
@_ZSt3cin = external dso_local global %"class.std::basic_istream", align 8
@_ZSt4cout = external dso_local global %"class.std::basic_ostream", align 8
@llvm.global_ctors = appending global [1 x { i32, void ()*, i8* }] [{ i32, void ()*, i8* } { i32 65535, void ()* @_GLOBAL__sub_I_2214.cpp, i8* null }]

; Function Attrs: noinline uwtable
define internal void @__cxx_global_var_init() #0 section ".text.startup" {
  call void @_ZNSt8ios_base4InitC1Ev(%"class.std::ios_base::Init"* @_ZStL8__ioinit)
  %1 = call i32 @__cxa_atexit(void (i8*)* bitcast (void (%"class.std::ios_base::Init"*)* @_ZNSt8ios_base4InitD1Ev to void (i8*)*), i8* getelementptr inbounds (%"class.std::ios_base::Init", %"class.std::ios_base::Init"* @_ZStL8__ioinit, i32 0, i32 0), i8* @__dso_handle) #3
  ret void
}

declare dso_local void @_ZNSt8ios_base4InitC1Ev(%"class.std::ios_base::Init"*) unnamed_addr #1

; Function Attrs: nounwind
declare dso_local void @_ZNSt8ios_base4InitD1Ev(%"class.std::ios_base::Init"*) unnamed_addr #2

; Function Attrs: nounwind
declare dso_local i32 @__cxa_atexit(void (i8*)*, i8*, i8*) #3

; Function Attrs: noinline nounwind uwtable
define dso_local void @_Z4movePci(i8* %0, i32 %1) #4 {
  %3 = alloca i8*, align 8
  %4 = alloca i32, align 4
  store i8* %0, i8** %3, align 8
  store i32 %1, i32* %4, align 4
  br label %5

5:                                                ; preds = %18, %2
  %6 = load i8*, i8** %3, align 8
  %7 = load i8, i8* %6, align 1
  %8 = sext i8 %7 to i32
  %9 = icmp ne i32 %8, 0
  br i1 %9, label %10, label %21

10:                                               ; preds = %5
  %11 = load i8*, i8** %3, align 8
  %12 = load i8, i8* %11, align 1
  %13 = load i8*, i8** %3, align 8
  %14 = load i32, i32* %4, align 4
  %15 = sext i32 %14 to i64
  %16 = sub i64 0, %15
  %17 = getelementptr inbounds i8, i8* %13, i64 %16
  store i8 %12, i8* %17, align 1
  br label %18

18:                                               ; preds = %10
  %19 = load i8*, i8** %3, align 8
  %20 = getelementptr inbounds i8, i8* %19, i32 1
  store i8* %20, i8** %3, align 8
  br label %5

21:                                               ; preds = %5
  %22 = load i8*, i8** %3, align 8
  %23 = load i8, i8* %22, align 1
  %24 = load i8*, i8** %3, align 8
  %25 = load i32, i32* %4, align 4
  %26 = sext i32 %25 to i64
  %27 = sub i64 0, %26
  %28 = getelementptr inbounds i8, i8* %24, i64 %27
  store i8 %23, i8* %28, align 1
  ret void
}

; Function Attrs: noinline uwtable
define dso_local void @_Z4dealPc(i8* %0) #0 {
  %2 = alloca i8*, align 8
  %3 = alloca i8*, align 8
  %4 = alloca i32, align 4
  store i8* %0, i8** %2, align 8
  %5 = load i8*, i8** %2, align 8
  %6 = load i8, i8* %5, align 1
  %7 = sext i8 %6 to i32
  %8 = icmp eq i32 %7, 0
  br i1 %8, label %9, label %10

9:                                                ; preds = %1
  br label %47

10:                                               ; preds = %1
  %11 = load i8*, i8** %2, align 8
  %12 = load i8, i8* %11, align 1
  %13 = sext i8 %12 to i32
  %14 = icmp ne i32 %13, 32
  br i1 %14, label %15, label %18

15:                                               ; preds = %10
  %16 = load i8*, i8** %2, align 8
  %17 = getelementptr inbounds i8, i8* %16, i64 1
  call void @_Z4dealPc(i8* %17)
  br label %46

18:                                               ; preds = %10
  %19 = load i8*, i8** %2, align 8
  %20 = getelementptr inbounds i8, i8* %19, i64 1
  store i8* %20, i8** %3, align 8
  br label %21

21:                                               ; preds = %27, %18
  %22 = load i8*, i8** %3, align 8
  %23 = load i8, i8* %22, align 1
  %24 = sext i8 %23 to i32
  %25 = icmp eq i32 %24, 32
  br i1 %25, label %26, label %30

26:                                               ; preds = %21
  br label %27

27:                                               ; preds = %26
  %28 = load i8*, i8** %3, align 8
  %29 = getelementptr inbounds i8, i8* %28, i32 1
  store i8* %29, i8** %3, align 8
  br label %21

30:                                               ; preds = %21
  %31 = load i8*, i8** %3, align 8
  %32 = load i8*, i8** %2, align 8
  %33 = ptrtoint i8* %31 to i64
  %34 = ptrtoint i8* %32 to i64
  %35 = sub i64 %33, %34
  %36 = sub nsw i64 %35, 1
  %37 = trunc i64 %36 to i32
  store i32 %37, i32* %4, align 4
  %38 = load i32, i32* %4, align 4
  %39 = icmp ne i32 %38, 0
  br i1 %39, label %40, label %43

40:                                               ; preds = %30
  %41 = load i8*, i8** %3, align 8
  %42 = load i32, i32* %4, align 4
  call void @_Z4movePci(i8* %41, i32 %42)
  br label %43

43:                                               ; preds = %40, %30
  %44 = load i8*, i8** %2, align 8
  %45 = getelementptr inbounds i8, i8* %44, i64 1
  call void @_Z4dealPc(i8* %45)
  br label %46

46:                                               ; preds = %43, %15
  br label %47

47:                                               ; preds = %9, %46
  ret void
}

; Function Attrs: noinline norecurse uwtable
define dso_local i32 @main() #5 {
  %1 = alloca i32, align 4
  %2 = alloca [201 x i8], align 16
  store i32 0, i32* %1, align 4
  %3 = getelementptr inbounds [201 x i8], [201 x i8]* %2, i64 0, i64 0
  %4 = call dereferenceable(280) %"class.std::basic_istream"* @_ZNSi7getlineEPcl(%"class.std::basic_istream"* @_ZSt3cin, i8* %3, i64 201)
  %5 = getelementptr inbounds [201 x i8], [201 x i8]* %2, i64 0, i64 0
  call void @_Z4dealPc(i8* %5)
  %6 = getelementptr inbounds [201 x i8], [201 x i8]* %2, i64 0, i64 0
  %7 = call dereferenceable(272) %"class.std::basic_ostream"* @_ZStlsISt11char_traitsIcEERSt13basic_ostreamIcT_ES5_PKc(%"class.std::basic_ostream"* dereferenceable(272) @_ZSt4cout, i8* %6)
  ret i32 0
}

declare dso_local dereferenceable(280) %"class.std::basic_istream"* @_ZNSi7getlineEPcl(%"class.std::basic_istream"*, i8*, i64) #1

declare dso_local dereferenceable(272) %"class.std::basic_ostream"* @_ZStlsISt11char_traitsIcEERSt13basic_ostreamIcT_ES5_PKc(%"class.std::basic_ostream"* dereferenceable(272), i8*) #1

; Function Attrs: noinline uwtable
define internal void @_GLOBAL__sub_I_2214.cpp() #0 section ".text.startup" {
  call void @__cxx_global_var_init()
  ret void
}


!llvm.module.flags = !{!0}
!llvm.ident = !{!1}

!0 = !{i32 1, !"wchar_size", i32 4}
!1 = !{!"clang version 10.0.0-4ubuntu1 "}
