; ModuleID = 'source-C-CXX/61/2214.cpp'
source_filename = "source-C-CXX/61/2214.cpp"
target datalayout = "e-m:e-p270:32:32-p271:32:32-p272:64:64-i64:64-f80:128-n8:16:32:64-S128"
target triple = "x86_64-pc-linux-gnu"

%"class.std::ios_base::Init" = type { i8 }
%"class.std::basic_istream" = type { i32 (...)**, i64, %"class.std::basic_ios" }
%"class.std::basic_ios" = type { %"class.std::ios_base", %"class.std::basic_ostream"*, i8, i8, %"class.std::basic_streambuf"*, %"class.std::ctype"*, %"class.std::num_put"*, %"class.std::num_get"* }
%"class.std::ios_base" = type { i32 (...)**, i64, i64, i32, i32, i32, %"struct.std::ios_base::_Callback_list"*, %"struct.std::ios_base::_Words", [8 x %"struct.std::ios_base::_Words"], i32, %"struct.std::ios_base::_Words"*, %"class.std::locale" }
%"struct.std::ios_base::_Callback_list" = type { %"struct.std::ios_base::_Callback_list"*, void (i32, %"class.std::ios_base"*, i32)*, i32, i32 }
%"struct.std::ios_base::_Words" = type { i8*, i64 }
%"class.std::locale" = type { %"class.std::locale::_Impl"* }
%"class.std::locale::_Impl" = type { i32, %"class.std::locale::facet"**, i64, %"class.std::locale::facet"**, i8** }
%"class.std::locale::facet" = type <{ i32 (...)**, i32, [4 x i8] }>
%"class.std::basic_ostream" = type { i32 (...)**, %"class.std::basic_ios" }
%"class.std::basic_streambuf" = type { i32 (...)**, i8*, i8*, i8*, i8*, i8*, i8*, %"class.std::locale" }
%"class.std::ctype" = type <{ %"class.std::locale::facet.base", [4 x i8], %struct.__locale_struct*, i8, [7 x i8], i32*, i32*, i16*, i8, [256 x i8], [256 x i8], i8, [6 x i8] }>
%"class.std::locale::facet.base" = type <{ i32 (...)**, i32 }>
%struct.__locale_struct = type { [13 x %struct.__locale_data*], i16*, i32*, i32*, [13 x i8*] }
%struct.__locale_data = type opaque
%"class.std::num_put" = type { %"class.std::locale::facet.base", [4 x i8] }
%"class.std::num_get" = type { %"class.std::locale::facet.base", [4 x i8] }

@_ZStL8__ioinit = internal global %"class.std::ios_base::Init" zeroinitializer, align 1
@__dso_handle = external hidden global i8
@_ZSt3cin = external global %"class.std::basic_istream", align 8
@_ZSt4cout = external global %"class.std::basic_ostream", align 8
@llvm.global_ctors = appending global [1 x { i32, void ()*, i8* }] [{ i32, void ()*, i8* } { i32 65535, void ()* @_GLOBAL__sub_I_2214.cpp, i8* null }]

declare void @_ZNSt8ios_base4InitC1Ev(%"class.std::ios_base::Init"* nonnull align 1 dereferenceable(1)) unnamed_addr #0

; Function Attrs: nounwind
declare void @_ZNSt8ios_base4InitD1Ev(%"class.std::ios_base::Init"* nonnull align 1 dereferenceable(1)) unnamed_addr #1

; Function Attrs: nofree nounwind
declare i32 @__cxa_atexit(void (i8*)*, i8*, i8*) local_unnamed_addr #2

; Function Attrs: mustprogress nofree norecurse nosync nounwind sspstrong uwtable
define dso_local void @_Z4movePci(i8* nocapture %0, i32 %1) local_unnamed_addr #3 {
  %3 = sext i32 %1 to i64
  %4 = sub nsw i64 0, %3
  %5 = load i8, i8* %0, align 1, !tbaa !5
  %6 = icmp eq i8 %5, 0
  br i1 %6, label %14, label %7

7:                                                ; preds = %2, %7
  %8 = phi i8 [ %12, %7 ], [ %5, %2 ]
  %9 = phi i8* [ %11, %7 ], [ %0, %2 ]
  %10 = getelementptr inbounds i8, i8* %9, i64 %4
  store i8 %8, i8* %10, align 1, !tbaa !5
  %11 = getelementptr inbounds i8, i8* %9, i64 1
  %12 = load i8, i8* %11, align 1, !tbaa !5
  %13 = icmp eq i8 %12, 0
  br i1 %13, label %14, label %7, !llvm.loop !8

14:                                               ; preds = %7, %2
  %15 = phi i8* [ %0, %2 ], [ %11, %7 ]
  %16 = getelementptr inbounds i8, i8* %15, i64 %4
  store i8 0, i8* %16, align 1, !tbaa !5
  ret void
}

; Function Attrs: mustprogress nofree nosync nounwind sspstrong uwtable
define dso_local void @_Z4dealPc(i8* %0) local_unnamed_addr #4 {
  br label %2

2:                                                ; preds = %21, %1
  %3 = phi i8* [ %0, %1 ], [ %22, %21 ]
  %4 = load i8, i8* %3, align 1, !tbaa !5
  switch i8 %4, label %5 [
    i8 0, label %38
    i8 32, label %7
  ]

5:                                                ; preds = %2
  %6 = getelementptr inbounds i8, i8* %3, i64 1
  br label %21

7:                                                ; preds = %2
  %8 = getelementptr inbounds i8, i8* %3, i64 1
  br label %9

9:                                                ; preds = %9, %7
  %10 = phi i8* [ %8, %7 ], [ %13, %9 ]
  %11 = load i8, i8* %10, align 1, !tbaa !5
  %12 = icmp eq i8 %11, 32
  %13 = getelementptr inbounds i8, i8* %10, i64 1
  br i1 %12, label %9, label %14, !llvm.loop !10

14:                                               ; preds = %9
  %15 = ptrtoint i8* %10 to i64
  %16 = ptrtoint i8* %3 to i64
  %17 = xor i64 %16, -1
  %18 = add i64 %15, %17
  %19 = trunc i64 %18 to i32
  %20 = icmp eq i32 %19, 0
  br i1 %20, label %21, label %23

21:                                               ; preds = %14, %35, %5
  %22 = phi i8* [ %6, %5 ], [ %8, %35 ], [ %8, %14 ]
  br label %2

23:                                               ; preds = %14
  %24 = shl i64 %18, 32
  %25 = ashr exact i64 %24, 32
  %26 = sub nsw i64 0, %25
  %27 = icmp eq i8 %11, 0
  br i1 %27, label %35, label %28

28:                                               ; preds = %23, %28
  %29 = phi i8 [ %33, %28 ], [ %11, %23 ]
  %30 = phi i8* [ %32, %28 ], [ %10, %23 ]
  %31 = getelementptr inbounds i8, i8* %30, i64 %26
  store i8 %29, i8* %31, align 1, !tbaa !5
  %32 = getelementptr inbounds i8, i8* %30, i64 1
  %33 = load i8, i8* %32, align 1, !tbaa !5
  %34 = icmp eq i8 %33, 0
  br i1 %34, label %35, label %28, !llvm.loop !8

35:                                               ; preds = %28, %23
  %36 = phi i8* [ %10, %23 ], [ %32, %28 ]
  %37 = getelementptr inbounds i8, i8* %36, i64 %26
  store i8 0, i8* %37, align 1, !tbaa !5
  br label %21

38:                                               ; preds = %2
  ret void
}

; Function Attrs: argmemonly mustprogress nofree nosync nounwind willreturn
declare void @llvm.lifetime.start.p0i8(i64 immarg, i8* nocapture) #5

; Function Attrs: argmemonly mustprogress nofree nosync nounwind willreturn
declare void @llvm.lifetime.end.p0i8(i64 immarg, i8* nocapture) #5

; Function Attrs: mustprogress norecurse sspstrong uwtable
define dso_local i32 @main() local_unnamed_addr #6 {
  %1 = alloca [201 x i8], align 16
  %2 = getelementptr inbounds [201 x i8], [201 x i8]* %1, i64 0, i64 0
  call void @llvm.lifetime.start.p0i8(i64 201, i8* nonnull %2) #10
  %3 = load i8*, i8** bitcast (%"class.std::basic_istream"* @_ZSt3cin to i8**), align 8, !tbaa !11
  %4 = getelementptr i8, i8* %3, i64 -24
  %5 = bitcast i8* %4 to i64*
  %6 = load i64, i64* %5, align 8
  %7 = add nsw i64 %6, 240
  %8 = getelementptr inbounds i8, i8* bitcast (%"class.std::basic_istream"* @_ZSt3cin to i8*), i64 %7
  %9 = bitcast i8* %8 to %"class.std::ctype"**
  %10 = load %"class.std::ctype"*, %"class.std::ctype"** %9, align 8, !tbaa !13
  %11 = icmp eq %"class.std::ctype"* %10, null
  br i1 %11, label %12, label %13

12:                                               ; preds = %0
  tail call void @_ZSt16__throw_bad_castv() #11
  unreachable

13:                                               ; preds = %0
  %14 = getelementptr inbounds %"class.std::ctype", %"class.std::ctype"* %10, i64 0, i32 8
  %15 = load i8, i8* %14, align 8, !tbaa !17
  %16 = icmp eq i8 %15, 0
  br i1 %16, label %20, label %17

17:                                               ; preds = %13
  %18 = getelementptr inbounds %"class.std::ctype", %"class.std::ctype"* %10, i64 0, i32 9, i64 10
  %19 = load i8, i8* %18, align 1, !tbaa !5
  br label %26

20:                                               ; preds = %13
  tail call void @_ZNKSt5ctypeIcE13_M_widen_initEv(%"class.std::ctype"* nonnull align 8 dereferenceable(570) %10)
  %21 = bitcast %"class.std::ctype"* %10 to i8 (%"class.std::ctype"*, i8)***
  %22 = load i8 (%"class.std::ctype"*, i8)**, i8 (%"class.std::ctype"*, i8)*** %21, align 8, !tbaa !11
  %23 = getelementptr inbounds i8 (%"class.std::ctype"*, i8)*, i8 (%"class.std::ctype"*, i8)** %22, i64 6
  %24 = load i8 (%"class.std::ctype"*, i8)*, i8 (%"class.std::ctype"*, i8)** %23, align 8
  %25 = tail call signext i8 %24(%"class.std::ctype"* nonnull align 8 dereferenceable(570) %10, i8 signext 10)
  br label %26

26:                                               ; preds = %17, %20
  %27 = phi i8 [ %19, %17 ], [ %25, %20 ]
  %28 = call nonnull align 8 dereferenceable(16) %"class.std::basic_istream"* @_ZNSi7getlineEPclc(%"class.std::basic_istream"* nonnull align 8 dereferenceable(16) @_ZSt3cin, i8* nonnull %2, i64 201, i8 signext %27)
  br label %29

29:                                               ; preds = %63, %26
  %30 = phi i8* [ %2, %26 ], [ %64, %63 ]
  %31 = load i8, i8* %30, align 1, !tbaa !5
  switch i8 %31, label %32 [
    i8 0, label %65
    i8 32, label %34
  ]

32:                                               ; preds = %29
  %33 = getelementptr inbounds i8, i8* %30, i64 1
  br label %63

34:                                               ; preds = %29
  %35 = getelementptr inbounds i8, i8* %30, i64 1
  br label %36

36:                                               ; preds = %36, %34
  %37 = phi i8* [ %35, %34 ], [ %40, %36 ]
  %38 = load i8, i8* %37, align 1, !tbaa !5
  %39 = icmp eq i8 %38, 32
  %40 = getelementptr inbounds i8, i8* %37, i64 1
  br i1 %39, label %36, label %41, !llvm.loop !10

41:                                               ; preds = %36
  %42 = ptrtoint i8* %37 to i64
  %43 = ptrtoint i8* %30 to i64
  %44 = xor i64 %43, -1
  %45 = add i64 %42, %44
  %46 = trunc i64 %45 to i32
  %47 = icmp eq i32 %46, 0
  br i1 %47, label %63, label %48

48:                                               ; preds = %41
  %49 = shl i64 %45, 32
  %50 = ashr exact i64 %49, 32
  %51 = sub nsw i64 0, %50
  %52 = icmp eq i8 %38, 0
  br i1 %52, label %60, label %53

53:                                               ; preds = %48, %53
  %54 = phi i8 [ %58, %53 ], [ %38, %48 ]
  %55 = phi i8* [ %57, %53 ], [ %37, %48 ]
  %56 = getelementptr inbounds i8, i8* %55, i64 %51
  store i8 %54, i8* %56, align 1, !tbaa !5
  %57 = getelementptr inbounds i8, i8* %55, i64 1
  %58 = load i8, i8* %57, align 1, !tbaa !5
  %59 = icmp eq i8 %58, 0
  br i1 %59, label %60, label %53, !llvm.loop !8

60:                                               ; preds = %53, %48
  %61 = phi i8* [ %37, %48 ], [ %57, %53 ]
  %62 = getelementptr inbounds i8, i8* %61, i64 %51
  store i8 0, i8* %62, align 1, !tbaa !5
  br label %63

63:                                               ; preds = %60, %41, %32
  %64 = phi i8* [ %33, %32 ], [ %35, %60 ], [ %35, %41 ]
  br label %29

65:                                               ; preds = %29
  %66 = call i64 @strlen(i8* noundef nonnull dereferenceable(1) %2) #10
  %67 = call nonnull align 8 dereferenceable(8) %"class.std::basic_ostream"* @_ZSt16__ostream_insertIcSt11char_traitsIcEERSt13basic_ostreamIT_T0_ES6_PKS3_l(%"class.std::basic_ostream"* nonnull align 8 dereferenceable(8) @_ZSt4cout, i8* nonnull %2, i64 %66)
  call void @llvm.lifetime.end.p0i8(i64 201, i8* nonnull %2) #10
  ret i32 0
}

declare nonnull align 8 dereferenceable(16) %"class.std::basic_istream"* @_ZNSi7getlineEPclc(%"class.std::basic_istream"* nonnull align 8 dereferenceable(16), i8*, i64, i8 signext) local_unnamed_addr #0

; Function Attrs: noreturn
declare void @_ZSt16__throw_bad_castv() local_unnamed_addr #7

declare void @_ZNKSt5ctypeIcE13_M_widen_initEv(%"class.std::ctype"* nonnull align 8 dereferenceable(570)) local_unnamed_addr #0

declare nonnull align 8 dereferenceable(8) %"class.std::basic_ostream"* @_ZSt16__ostream_insertIcSt11char_traitsIcEERSt13basic_ostreamIT_T0_ES6_PKS3_l(%"class.std::basic_ostream"* nonnull align 8 dereferenceable(8), i8*, i64) local_unnamed_addr #0

; Function Attrs: argmemonly mustprogress nofree nounwind readonly willreturn
declare i64 @strlen(i8* nocapture) local_unnamed_addr #8

; Function Attrs: sspstrong uwtable
define internal void @_GLOBAL__sub_I_2214.cpp() #9 section ".text.startup" {
  tail call void @_ZNSt8ios_base4InitC1Ev(%"class.std::ios_base::Init"* nonnull align 1 dereferenceable(1) @_ZStL8__ioinit)
  %1 = tail call i32 @__cxa_atexit(void (i8*)* bitcast (void (%"class.std::ios_base::Init"*)* @_ZNSt8ios_base4InitD1Ev to void (i8*)*), i8* getelementptr inbounds (%"class.std::ios_base::Init", %"class.std::ios_base::Init"* @_ZStL8__ioinit, i64 0, i32 0), i8* nonnull @__dso_handle) #10
  ret void
}


!llvm.module.flags = !{!0, !1, !2, !3}
!llvm.ident = !{!4}

!0 = !{i32 1, !"wchar_size", i32 4}
!1 = !{i32 7, !"PIC Level", i32 2}
!2 = !{i32 7, !"PIE Level", i32 2}
!3 = !{i32 7, !"uwtable", i32 1}
!4 = !{!"clang version 13.0.0"}
!5 = !{!6, !6, i64 0}
!6 = !{!"omnipotent char", !7, i64 0}
!7 = !{!"Simple C++ TBAA"}
!8 = distinct !{!8, !9}
!9 = !{!"llvm.loop.mustprogress"}
!10 = distinct !{!10, !9}
!11 = !{!12, !12, i64 0}
!12 = !{!"vtable pointer", !7, i64 0}
!13 = !{!14, !15, i64 240}
!14 = !{!"_ZTSSt9basic_iosIcSt11char_traitsIcEE", !15, i64 216, !6, i64 224, !16, i64 225, !15, i64 232, !15, i64 240, !15, i64 248, !15, i64 256}
!15 = !{!"any pointer", !6, i64 0}
!16 = !{!"bool", !6, i64 0}
!17 = !{!18, !6, i64 56}
!18 = !{!"_ZTSSt5ctypeIcE", !15, i64 16, !16, i64 24, !15, i64 32, !15, i64 40, !15, i64 48, !6, i64 56, !6, i64 57, !6, i64 313, !6, i64 569}
